; Function Attrs: mustprogress nounwind uwtable
define hidden void @_ZN10MemoryPoolC2EPKcNS_8PoolTypeEmmbb(ptr noundef nonnull align 8 dereferenceable(201) %0, ptr noundef %1, i32 noundef %2, i64 noundef %3, i64 noundef %4, i1 noundef zeroext %5, i1 noundef zeroext %6) unnamed_addr #0 align 2 {
  store ptr getelementptr inbounds inrange(-16, 64) (i8, ptr @_ZTV10MemoryPool, i64 16), ptr %0, align 8
  %8 = getelementptr inbounds i8, ptr %0, i64 8
  store ptr %1, ptr %8, align 8
  %9 = getelementptr inbounds i8, ptr %0, i64 16
  store i32 %2, ptr %9, align 8
  %10 = getelementptr inbounds i8, ptr %0, i64 24
  store i64 %3, ptr %10, align 8
  %11 = getelementptr inbounds i8, ptr %0, i64 32
  store i64 %4, ptr %11, align 8
  %12 = getelementptr inbounds i8, ptr %0, i64 40
  store i8 1, ptr %12, align 8
  %13 = getelementptr inbounds i8, ptr %0, i64 48
  %14 = getelementptr inbounds i8, ptr %0, i64 96
  tail call void @llvm.memset.p0.i64(ptr noundef nonnull align 8 dereferenceable(32) %14, i8 0, i64 32, i1 false)
  %15 = getelementptr inbounds i8, ptr %0, i64 128
  tail call void @llvm.memset.p0.i64(ptr noundef nonnull align 8 dereferenceable(44) %13, i8 0, i64 44, i1 false)
  store i64 %3, ptr %15, align 8
  %16 = getelementptr inbounds i8, ptr %0, i64 136
  %17 = getelementptr inbounds i8, ptr %0, i64 152
  tail call void @llvm.memset.p0.i64(ptr noundef nonnull align 8 dereferenceable(16) %16, i8 0, i64 16, i1 false)
  store i64 %4, ptr %17, align 8
  %18 = getelementptr inbounds i8, ptr %0, i64 160
  %19 = tail call noundef ptr @_Z12AllocateHeapm8MEMFLAGSN17AllocFailStrategy13AllocFailEnumE(i64 noundef 24, i8 noundef zeroext 9, i32 noundef 0) #10
  %20 = zext i1 %5 to i8
  store i8 %20, ptr %19, align 8
  %21 = getelementptr inbounds i8, ptr %19, i64 1
  store i8 %20, ptr %21, align 1
  %22 = getelementptr inbounds i8, ptr %19, i64 8
  tail call void @llvm.memset.p0.i64(ptr noundef nonnull align 8 dereferenceable(16) %22, i8 0, i64 16, i1 false)
  store ptr %19, ptr %18, align 8
  %23 = getelementptr inbounds i8, ptr %0, i64 168
  %24 = tail call noundef ptr @_Z12AllocateHeapm8MEMFLAGSN17AllocFailStrategy13AllocFailEnumE(i64 noundef 24, i8 noundef zeroext 9, i32 noundef 0) #10
  %25 = zext i1 %6 to i8
  store i8 %25, ptr %24, align 8
  %26 = getelementptr inbounds i8, ptr %24, i64 1
  store i8 %25, ptr %26, align 1
  %27 = getelementptr inbounds i8, ptr %24, i64 8
  tail call void @llvm.memset.p0.i64(ptr noundef nonnull align 8 dereferenceable(16) %27, i8 0, i64 16, i1 false)
  store ptr %24, ptr %23, align 8
  %28 = getelementptr inbounds i8, ptr %0, i64 176
  %29 = getelementptr inbounds i8, ptr %0, i64 200
  tail call void @llvm.memset.p0.i64(ptr noundef nonnull align 8 dereferenceable(24) %28, i8 0, i64 24, i1 false)
  store volatile i8 0, ptr %29, align 8
  ret void
}